Certificate:
    Data:
        Version: 1 (0x0)
        Serial Number: 1 (0x1)
        Signature Algorithm: sha256WithRSAEncryption
        Issuer: C=US, ST=CA, L=Sunnyvale, O=My Organization, CN=My Org CA/emailAddress=example@my-organization.com
        Validity
            Not Before: Jun 16 15:47:18 2023 GMT
            Not After : Jun 15 15:47:18 2024 GMT
        Subject: C=US, ST=CA, O=My Organization, CN=A publisher/emailAddress=publisher@my-organization.com
        Subject Public Key Info:
            Public Key Algorithm: rsaEncryption
                RSA Public-Key: (2048 bit)
                Modulus:
                    00:da:59:a9:e0:a1:93:81:14:65:f9:00:5d:16:14:
                    32:37:7b:55:05:63:b4:3d:89:b1:5a:ff:2b:49:b9:
                    89:27:fe:e7:37:71:af:df:2a:c2:f0:8f:47:39:53:
                    5f:0b:17:69:86:1e:a5:a9:e1:45:cd:f5:df:d1:16:
                    4f:95:f9:bb:a2:b0:2b:75:4c:d9:b0:33:bc:09:fe:
                    15:ee:8f:ad:c3:83:1d:87:d7:50:66:11:fa:67:21:
                    99:b0:da:56:0d:c7:de:60:7d:06:0b:a5:e4:7a:0e:
                    ea:c2:46:d5:c6:29:08:fc:ba:11:3a:93:72:7b:33:
                    fb:60:f6:4b:61:39:cc:56:b6:36:43:47:c8:51:66:
                    7c:52:5c:37:b5:7b:22:e7:01:36:17:db:7d:37:4a:
                    ae:69:67:31:5e:f2:d4:20:7a:90:e7:0c:b5:15:63:
                    91:f3:7b:09:03:c7:a9:82:01:09:bc:78:03:f5:d9:
                    1f:32:b5:50:99:3e:49:c7:0d:29:8c:10:96:9b:89:
                    95:1b:55:0d:33:c3:31:f3:45:f1:2b:70:99:9b:4d:
                    2e:74:dc:4e:54:64:93:7b:52:0b:3c:08:91:82:69:
                    ab:f3:a9:c9:f6:e1:05:18:03:2a:04:30:81:72:78:
                    6b:b6:64:41:d3:a8:41:56:aa:0e:91:aa:fe:64:d6:
                    6b:ab
                Exponent: 65537 (0x10001)
    Signature Algorithm: sha256WithRSAEncryption
         73:ea:7a:5c:e2:f8:6f:9d:ff:09:b3:37:36:f6:c1:31:c1:3d:
         a8:e0:60:f1:82:b1:bf:a7:82:47:25:f6:f7:22:5d:38:7f:2f:
         ab:59:8f:41:87:8c:0f:74:8a:53:3b:1d:1f:06:fd:45:69:47:
         f3:2c:85:b2:df:df:b4:c5:1c:d7:f0:cc:fd:42:6b:ea:66:21:
         b0:25:26:b0:32:bb:b7:53:95:d3:08:ba:77:bc:6d:10:04:ba:
         ac:ae:3a:11:58:19:36:b8:04:3d:c7:f2:a5:c8:3a:f1:ec:84:
         41:05:f8:64:ca:49:66:81:f0:bb:8f:79:95:9c:43:c3:9a:09:
         7e:64:d0:4c:b6:b0:20:c7:2a:9b:9b:ed:f7:ce:af:47:a1:6e:
         2c:15:6c:bc:3f:2b:a5:3c:85:67:55:4c:ec:ca:46:20:98:23:
         01:09:34:d8:6b:6f:4e:fe:1c:c8:30:50:82:62:27:15:00:27:
         2a:98:6b:24:59:f6:32:fc:99:09:a2:92:35:cd:48:fc:5e:2b:
         c9:0d:59:ba:21:b7:a1:e7:b6:54:2f:29:50:40:95:ae:8e:10:
         21:27:48:af:5d:a5:79:52:c3:31:b1:dd:f0:ca:83:b4:1f:07:
         e0:2f:4b:7b:20:ba:f8:43:aa:db:67:28:a1:0e:a7:19:64:3c:
         87:01:fe:18
-----BEGIN CERTIFICATE-----
MIIDdTCCAl0CAQEwDQYJKoZIhvcNAQELBQAwgYgxCzAJBgNVBAYTAlVTMQswCQYD
VQQIDAJDQTESMBAGA1UEBwwJU3Vubnl2YWxlMRgwFgYDVQQKDA9NeSBPcmdhbml6
YXRpb24xEjAQBgNVBAMMCU15IE9yZyBDQTEqMCgGCSqGSIb3DQEJARYbZXhhbXBs
ZUBteS1vcmdhbml6YXRpb24uY29tMB4XDTIzMDYxNjE1NDcxOFoXDTI0MDYxNTE1
NDcxOFoweDELMAkGA1UEBhMCVVMxCzAJBgNVBAgMAkNBMRgwFgYDVQQKDA9NeSBP
cmdhbml6YXRpb24xFDASBgNVBAMMC0EgcHVibGlzaGVyMSwwKgYJKoZIhvcNAQkB
Fh1wdWJsaXNoZXJAbXktb3JnYW5pemF0aW9uLmNvbTCCASIwDQYJKoZIhvcNAQEB
BQADggEPADCCAQoCggEBANpZqeChk4EUZfkAXRYUMjd7VQVjtD2JsVr/K0m5iSf+
5zdxr98qwvCPRzlTXwsXaYYepanhRc3139EWT5X5u6KwK3VM2bAzvAn+Fe6PrcOD
HYfXUGYR+mchmbDaVg3H3mB9Bgul5HoO6sJG1cYpCPy6ETqTcnsz+2D2S2E5zFa2
NkNHyFFmfFJcN7V7IucBNhfbfTdKrmlnMV7y1CB6kOcMtRVjkfN7CQPHqYIBCbx4
A/XZHzK1UJk+SccNKYwQlpuJlRtVDTPDMfNF8StwmZtNLnTcTlRkk3tSCzwIkYJp
q/OpyfbhBRgDKgQwgXJ4a7ZkQdOoQVaqDpGq/mTWa6sCAwEAATANBgkqhkiG9w0B
AQsFAAOCAQEAc+p6XOL4b53/CbM3NvbBMcE9qOBg8YKxv6eCRyX29yJdOH8vq1mP
QYeMD3SKUzsdHwb9RWlH8yyFst/ftMUc1/DM/UJr6mYhsCUmsDK7t1OV0wi6d7xt
EAS6rK46EVgZNrgEPcfypcg68eyEQQX4ZMpJZoHwu495lZxDw5oJfmTQTLawIMcq
m5vt986vR6FuLBVsvD8rpTyFZ1VM7MpGIJgjAQk02GtvTv4cyDBQgmInFQAnKphr
JFn2MvyZCaKSNc1I/F4ryQ1ZuiG3oee2VC8pUECVro4QISdIr12leVLDMbHd8MqD
tB8H4C9LeyC6+EOq22cooQ6nGWQ8hwH+GA==
-----END CERTIFICATE-----
