Certificate:
    Data:
        Version: 1 (0x0)
        Serial Number: 2 (0x2)
        Signature Algorithm: sha256WithRSAEncryption
        Issuer: C=US, ST=CA, L=Sunnyvale, O=My Organization, CN=My Org CA/emailAddress=example@my-organization.com
        Validity
            Not Before: Jun 16 15:47:18 2023 GMT
            Not After : Jun 15 15:47:18 2024 GMT
        Subject: C=US, ST=CA, O=My Organization, CN=A subscriber/emailAddress=subscriber@my-organization.com
        Subject Public Key Info:
            Public Key Algorithm: rsaEncryption
                RSA Public-Key: (2048 bit)
                Modulus:
                    00:d7:27:de:bd:1e:77:7b:ae:58:1b:01:b3:6c:f2:
                    18:00:01:b7:b1:34:b8:37:af:47:38:73:57:a2:b4:
                    3b:1a:1f:f7:51:ec:63:7f:23:16:f6:12:fb:16:38:
                    4f:a2:27:e0:63:58:76:4d:8a:17:0c:2e:46:7a:78:
                    f1:f8:20:b1:14:36:86:b6:f7:e7:43:b1:26:f4:b7:
                    01:13:27:9e:e1:1b:97:1f:3f:09:0b:d1:8a:03:43:
                    fa:2c:98:09:50:75:fa:1f:a9:bf:c8:3b:dc:88:85:
                    38:1a:80:ce:89:24:2e:00:b3:d7:e8:4a:45:da:44:
                    3d:31:d6:1c:58:3f:4b:08:3b:de:b2:76:7a:53:66:
                    30:03:73:0f:16:0c:61:89:1b:09:f9:22:cc:fd:78:
                    8d:b3:1b:ec:fa:d5:9b:96:48:0e:58:c0:59:62:c3:
                    31:5c:e6:18:8c:d6:9d:94:5a:e7:b8:52:9b:d7:ed:
                    bc:52:6b:25:5b:bf:90:d3:b9:7f:66:99:16:52:7c:
                    fb:cf:5d:ad:bf:4e:28:58:91:f9:1c:b2:2a:91:d2:
                    85:ff:65:04:bc:08:9e:23:9b:ce:f3:c9:fb:0e:51:
                    38:4b:8a:2f:eb:c7:69:ff:8a:9b:e5:47:a0:1e:bb:
                    ee:ee:a3:f1:56:32:4f:a6:95:45:31:c1:d2:b8:91:
                    42:2b
                Exponent: 65537 (0x10001)
    Signature Algorithm: sha256WithRSAEncryption
         68:46:35:3d:96:ea:b8:48:84:94:00:0c:77:c6:08:3b:b3:66:
         bc:dd:0e:5a:7b:6c:d4:3d:64:97:86:a2:35:99:49:5e:5b:df:
         92:ac:79:17:24:ff:2c:f1:ee:ab:43:39:be:ce:d6:70:8f:80:
         4a:61:1b:58:4a:a5:9a:97:8f:c2:59:27:f7:54:af:08:dd:5c:
         46:16:a7:62:d4:b4:5c:39:11:4a:98:ee:c6:f6:f1:b9:b5:53:
         9b:c8:e5:57:c4:2b:4d:a6:01:23:f9:22:95:9c:e6:88:29:f3:
         5c:25:7d:f8:e6:84:51:95:35:5a:89:4b:49:76:c6:0a:b0:82:
         48:50:2d:90:80:e6:0b:f9:c4:da:b1:83:2d:dd:1c:e7:03:96:
         57:11:2a:b1:27:39:d6:91:c2:69:9f:7f:ae:56:e2:ae:a9:44:
         06:9f:e4:5d:1c:99:fd:3f:10:6f:ae:c0:0b:5b:c4:4e:ec:25:
         f7:8a:43:bd:10:fa:03:65:39:2b:4e:1b:7e:75:3a:e0:f9:03:
         7d:41:2f:2a:3c:81:ce:e4:88:a5:e3:fe:95:af:30:b2:0f:5b:
         9d:3f:ed:84:45:5f:ff:f2:1b:b6:59:53:b6:41:c5:9a:e4:b3:
         04:8f:fa:7b:df:c4:af:78:fe:92:73:ef:2e:10:7c:3d:bd:3e:
         af:2d:68:b3
-----BEGIN CERTIFICATE-----
MIIDdzCCAl8CAQIwDQYJKoZIhvcNAQELBQAwgYgxCzAJBgNVBAYTAlVTMQswCQYD
VQQIDAJDQTESMBAGA1UEBwwJU3Vubnl2YWxlMRgwFgYDVQQKDA9NeSBPcmdhbml6
YXRpb24xEjAQBgNVBAMMCU15IE9yZyBDQTEqMCgGCSqGSIb3DQEJARYbZXhhbXBs
ZUBteS1vcmdhbml6YXRpb24uY29tMB4XDTIzMDYxNjE1NDcxOFoXDTI0MDYxNTE1
NDcxOFowejELMAkGA1UEBhMCVVMxCzAJBgNVBAgMAkNBMRgwFgYDVQQKDA9NeSBP
cmdhbml6YXRpb24xFTATBgNVBAMMDEEgc3Vic2NyaWJlcjEtMCsGCSqGSIb3DQEJ
ARYec3Vic2NyaWJlckBteS1vcmdhbml6YXRpb24uY29tMIIBIjANBgkqhkiG9w0B
AQEFAAOCAQ8AMIIBCgKCAQEA1yfevR53e65YGwGzbPIYAAG3sTS4N69HOHNXorQ7
Gh/3UexjfyMW9hL7FjhPoifgY1h2TYoXDC5Genjx+CCxFDaGtvfnQ7Em9LcBEyee
4RuXHz8JC9GKA0P6LJgJUHX6H6m/yDvciIU4GoDOiSQuALPX6EpF2kQ9MdYcWD9L
CDvesnZ6U2YwA3MPFgxhiRsJ+SLM/XiNsxvs+tWblkgOWMBZYsMxXOYYjNadlFrn
uFKb1+28UmslW7+Q07l/ZpkWUnz7z12tv04oWJH5HLIqkdKF/2UEvAieI5vO88n7
DlE4S4ov68dp/4qb5UegHrvu7qPxVjJPppVFMcHSuJFCKwIDAQABMA0GCSqGSIb3
DQEBCwUAA4IBAQBoRjU9luq4SISUAAx3xgg7s2a83Q5ae2zUPWSXhqI1mUleW9+S
rHkXJP8s8e6rQzm+ztZwj4BKYRtYSqWal4/CWSf3VK8I3VxGFqdi1LRcORFKmO7G
9vG5tVObyOVXxCtNpgEj+SKVnOaIKfNcJX345oRRlTVaiUtJdsYKsIJIUC2QgOYL
+cTasYMt3RznA5ZXESqxJznWkcJpn3+uVuKuqUQGn+RdHJn9PxBvrsALW8RO7CX3
ikO9EPoDZTkrTht+dTrg+QN9QS8qPIHO5Iil4/6VrzCyD1udP+2ERV//8hu2WVO2
QcWa5LMEj/p738SveP6Sc+8uEHw9vT6vLWiz
-----END CERTIFICATE-----
