Certificate:
    Data:
        Version: 1 (0x0)
        Serial Number: 1 (0x1)
        Signature Algorithm: sha256WithRSAEncryption
        Issuer: C=US, ST=CA, L=Sunnyvale, O=My Organization, CN=My Org CA/emailAddress=example@my-organization.com
        Validity
            Not Before: Jul 18 14:38:38 2023 GMT
            Not After : Mar  8 14:38:38 2049 GMT
        Subject: C=US, ST=CA, O=My Organization, CN=A publisher/emailAddress=publisher@my-organization.com
        Subject Public Key Info:
            Public Key Algorithm: rsaEncryption
                RSA Public-Key: (2048 bit)
                Modulus:
                    00:c9:c5:a2:a1:6b:90:70:cf:4d:0b:3c:85:44:ad:
                    37:8b:19:0e:90:2d:df:16:94:b9:bc:f0:2b:64:2e:
                    87:c9:c5:2a:a8:84:42:db:aa:f8:54:e0:b6:84:79:
                    97:38:f7:32:7c:15:6e:4f:e9:47:3e:f7:52:dc:62:
                    0e:27:55:91:b5:d4:5f:40:ed:d6:fb:fc:14:64:8c:
                    b9:18:c6:34:dc:fa:07:ce:24:77:fc:01:ea:fa:d2:
                    3a:7d:60:6c:84:17:9c:bc:4e:13:53:dd:8a:65:54:
                    29:56:0a:86:c7:ba:90:8f:4c:e9:36:7b:fd:90:6f:
                    42:27:92:ad:c7:d0:1c:84:d2:dc:7e:b8:1a:cd:35:
                    c2:1d:ec:bc:4f:59:b4:e1:3c:21:3d:ed:93:3b:21:
                    dc:2d:db:d3:bc:23:29:15:67:c9:2f:9a:19:f4:cf:
                    a8:24:27:4d:06:85:97:5c:32:e0:d8:ff:c3:7c:8d:
                    81:15:c7:6e:f6:16:a9:fd:cb:d2:1b:2d:4d:c8:2d:
                    87:34:23:4d:f5:7a:28:fc:fb:11:c4:ca:e0:b4:5e:
                    91:75:19:10:be:19:08:76:41:73:f9:92:83:27:37:
                    1f:08:c2:83:69:a1:16:c4:33:42:10:62:0f:3f:c8:
                    07:41:c4:c9:5d:9a:fa:ed:0d:88:73:e6:96:9f:69:
                    01:df
                Exponent: 65537 (0x10001)
    Signature Algorithm: sha256WithRSAEncryption
         6f:b8:6d:3c:60:97:b2:e7:57:d6:a8:71:e9:22:d5:60:e6:55:
         22:eb:90:fc:c3:ff:ca:80:1d:87:5f:e4:f1:fc:ba:99:05:e2:
         99:30:c8:3d:54:02:02:4d:00:1b:54:21:6e:3f:b8:37:45:85:
         81:83:2e:1d:c5:b1:56:a9:b3:00:10:57:18:d4:dc:fc:d4:8a:
         59:d9:07:54:bd:64:14:e7:c1:d2:28:d8:54:c3:f8:70:96:03:
         e4:06:42:f7:ef:80:fa:3c:e1:38:b2:4c:b6:a7:8e:85:53:df:
         69:31:c7:a0:2f:8b:e6:97:46:e6:68:6e:0d:5b:64:69:3e:e0:
         33:bc:5d:68:85:bd:f5:73:b9:35:bd:12:98:39:6a:43:9b:56:
         98:76:85:cf:2d:93:89:30:0f:54:22:80:b6:f4:17:38:07:a9:
         fb:55:40:bd:91:cc:1c:85:ed:ff:f1:b4:4a:16:ad:53:d5:a5:
         f3:51:58:bf:bd:29:7d:ba:34:05:8a:43:5c:4b:b7:35:bc:b0:
         00:b1:dc:67:62:c3:76:d0:d7:91:38:9c:e6:9f:45:ab:7c:35:
         27:fb:8f:9f:a0:00:fa:35:6e:40:36:f0:22:0c:09:5c:87:45:
         b0:1f:f3:b8:86:91:7d:68:92:8f:3c:66:0c:c8:22:cd:0e:4a:
         a9:c0:6f:04
-----BEGIN CERTIFICATE-----
MIIDdTCCAl0CAQEwDQYJKoZIhvcNAQELBQAwgYgxCzAJBgNVBAYTAlVTMQswCQYD
VQQIDAJDQTESMBAGA1UEBwwJU3Vubnl2YWxlMRgwFgYDVQQKDA9NeSBPcmdhbml6
YXRpb24xEjAQBgNVBAMMCU15IE9yZyBDQTEqMCgGCSqGSIb3DQEJARYbZXhhbXBs
ZUBteS1vcmdhbml6YXRpb24uY29tMB4XDTIzMDcxODE0MzgzOFoXDTQ5MDMwODE0
MzgzOFoweDELMAkGA1UEBhMCVVMxCzAJBgNVBAgMAkNBMRgwFgYDVQQKDA9NeSBP
cmdhbml6YXRpb24xFDASBgNVBAMMC0EgcHVibGlzaGVyMSwwKgYJKoZIhvcNAQkB
Fh1wdWJsaXNoZXJAbXktb3JnYW5pemF0aW9uLmNvbTCCASIwDQYJKoZIhvcNAQEB
BQADggEPADCCAQoCggEBAMnFoqFrkHDPTQs8hUStN4sZDpAt3xaUubzwK2Quh8nF
KqiEQtuq+FTgtoR5lzj3MnwVbk/pRz73UtxiDidVkbXUX0Dt1vv8FGSMuRjGNNz6
B84kd/wB6vrSOn1gbIQXnLxOE1PdimVUKVYKhse6kI9M6TZ7/ZBvQieSrcfQHITS
3H64Gs01wh3svE9ZtOE8IT3tkzsh3C3b07wjKRVnyS+aGfTPqCQnTQaFl1wy4Nj/
w3yNgRXHbvYWqf3L0hstTcgthzQjTfV6KPz7EcTK4LRekXUZEL4ZCHZBc/mSgyc3
HwjCg2mhFsQzQhBiDz/IB0HEyV2a+u0NiHPmlp9pAd8CAwEAATANBgkqhkiG9w0B
AQsFAAOCAQEAb7htPGCXsudX1qhx6SLVYOZVIuuQ/MP/yoAdh1/k8fy6mQXimTDI
PVQCAk0AG1Qhbj+4N0WFgYMuHcWxVqmzABBXGNTc/NSKWdkHVL1kFOfB0ijYVMP4
cJYD5AZC9++A+jzhOLJMtqeOhVPfaTHHoC+L5pdG5mhuDVtkaT7gM7xdaIW99XO5
Nb0SmDlqQ5tWmHaFzy2TiTAPVCKAtvQXOAep+1VAvZHMHIXt//G0ShatU9Wl81FY
v70pfbo0BYpDXEu3NbywALHcZ2LDdtDXkTic5p9Fq3w1J/uPn6AA+jVuQDbwIgwJ
XIdFsB/zuIaRfWiSjzxmDMgizQ5KqcBvBA==
-----END CERTIFICATE-----
