Certificate:
    Data:
        Version: 1 (0x0)
        Serial Number: 2 (0x2)
        Signature Algorithm: sha256WithRSAEncryption
        Issuer: C=US, ST=CA, L=Sunnyvale, O=My Organization, CN=My Org CA/emailAddress=example@my-organization.com
        Validity
            Not Before: Jul 18 14:38:38 2023 GMT
            Not After : Mar  8 14:38:38 2049 GMT
        Subject: C=US, ST=CA, O=My Organization, CN=A subscriber/emailAddress=subscriber@my-organization.com
        Subject Public Key Info:
            Public Key Algorithm: rsaEncryption
                RSA Public-Key: (2048 bit)
                Modulus:
                    00:e3:d1:56:4b:ba:1d:6b:fb:bc:9f:3b:5a:2e:b7:
                    c6:7b:28:48:4e:d0:07:98:15:f5:18:eb:95:09:b6:
                    d5:7e:9a:cc:09:17:ba:9a:ae:2f:41:0d:59:d5:8f:
                    c5:48:5f:10:2f:41:47:a1:1b:73:d4:6b:bf:8f:86:
                    9e:16:4a:4b:10:36:b0:a7:3d:8f:40:81:ca:3e:2a:
                    c1:0e:f9:f1:83:25:22:c3:8a:ac:a5:54:c7:b8:c0:
                    73:5c:71:99:3b:13:28:00:9f:b1:eb:cc:9c:88:0b:
                    7a:ba:2d:ad:aa:8c:0a:d5:27:f9:d7:5a:cc:e4:77:
                    55:a7:2f:26:ea:03:3a:6d:82:66:79:91:c1:1c:aa:
                    6c:67:ff:07:0e:45:25:d2:74:0f:fd:b3:d4:c5:20:
                    db:0d:ca:a1:83:d4:a9:8f:da:11:50:9a:28:a6:c6:
                    f0:d2:c8:ec:b0:f0:94:27:c2:78:68:38:b4:93:c3:
                    c0:aa:b5:a5:c5:b5:f7:03:78:ed:a4:10:41:90:07:
                    9e:57:3d:58:ee:4d:18:26:f4:08:f6:b9:57:0a:b3:
                    a6:39:0b:60:2f:bb:9c:ff:f0:68:77:72:d8:b8:0d:
                    d6:d7:4a:ea:cd:c3:a6:b4:b4:bb:31:d3:a2:86:4b:
                    61:27:28:8f:02:7c:e5:82:8a:f1:3c:84:f8:3d:d4:
                    c3:cb
                Exponent: 65537 (0x10001)
    Signature Algorithm: sha256WithRSAEncryption
         21:6f:5b:06:b2:ea:42:72:f8:c5:66:4a:bf:83:0e:91:b6:5c:
         34:76:17:3b:75:ab:b6:c7:f1:92:ca:b4:69:c2:0c:ce:60:dd:
         26:cf:2f:70:8b:4b:d6:95:4d:57:bc:78:e8:36:aa:9d:9d:1a:
         b6:ff:b2:96:63:b1:1e:e4:15:83:49:a1:af:4c:85:a6:e7:fb:
         25:8d:52:da:50:c5:ed:19:77:82:f4:70:c9:a2:01:76:f4:4e:
         8d:15:e9:57:3d:a7:f9:09:3e:85:48:42:38:d4:8a:32:df:82:
         9c:79:7f:d5:a6:bc:ce:ce:aa:d3:a0:c9:7b:f0:7a:90:65:bc:
         82:cd:b1:20:18:84:a9:c8:35:0a:40:67:23:7e:f9:1a:1f:a4:
         a1:37:9e:9b:c2:c6:cf:da:3c:96:9b:2c:16:0e:87:18:d7:e7:
         c3:57:07:ef:60:d3:e4:b0:0a:ed:ef:e6:af:4c:f3:7e:c5:34:
         85:5c:d9:ed:88:09:a9:6f:a8:0f:7e:7b:3f:6c:76:08:bc:c8:
         57:a9:e0:67:ef:d3:a5:66:0a:ca:89:c3:8e:2a:dd:3a:b0:f6:
         20:8e:2c:02:66:7b:59:d5:1a:01:46:20:a8:6e:dd:a1:a6:29:
         d4:0e:a9:54:d6:94:29:94:34:a3:a0:f3:7b:08:49:04:e9:5c:
         32:42:22:46
-----BEGIN CERTIFICATE-----
MIIDdzCCAl8CAQIwDQYJKoZIhvcNAQELBQAwgYgxCzAJBgNVBAYTAlVTMQswCQYD
VQQIDAJDQTESMBAGA1UEBwwJU3Vubnl2YWxlMRgwFgYDVQQKDA9NeSBPcmdhbml6
YXRpb24xEjAQBgNVBAMMCU15IE9yZyBDQTEqMCgGCSqGSIb3DQEJARYbZXhhbXBs
ZUBteS1vcmdhbml6YXRpb24uY29tMB4XDTIzMDcxODE0MzgzOFoXDTQ5MDMwODE0
MzgzOFowejELMAkGA1UEBhMCVVMxCzAJBgNVBAgMAkNBMRgwFgYDVQQKDA9NeSBP
cmdhbml6YXRpb24xFTATBgNVBAMMDEEgc3Vic2NyaWJlcjEtMCsGCSqGSIb3DQEJ
ARYec3Vic2NyaWJlckBteS1vcmdhbml6YXRpb24uY29tMIIBIjANBgkqhkiG9w0B
AQEFAAOCAQ8AMIIBCgKCAQEA49FWS7oda/u8nztaLrfGeyhITtAHmBX1GOuVCbbV
fprMCRe6mq4vQQ1Z1Y/FSF8QL0FHoRtz1Gu/j4aeFkpLEDawpz2PQIHKPirBDvnx
gyUiw4qspVTHuMBzXHGZOxMoAJ+x68yciAt6ui2tqowK1Sf511rM5HdVpy8m6gM6
bYJmeZHBHKpsZ/8HDkUl0nQP/bPUxSDbDcqhg9Spj9oRUJoopsbw0sjssPCUJ8J4
aDi0k8PAqrWlxbX3A3jtpBBBkAeeVz1Y7k0YJvQI9rlXCrOmOQtgL7uc//Bod3LY
uA3W10rqzcOmtLS7MdOihkthJyiPAnzlgorxPIT4PdTDywIDAQABMA0GCSqGSIb3
DQEBCwUAA4IBAQAhb1sGsupCcvjFZkq/gw6Rtlw0dhc7dau2x/GSyrRpwgzOYN0m
zy9wi0vWlU1XvHjoNqqdnRq2/7KWY7Ee5BWDSaGvTIWm5/sljVLaUMXtGXeC9HDJ
ogF29E6NFelXPaf5CT6FSEI41Ioy34KceX/VprzOzqrToMl78HqQZbyCzbEgGISp
yDUKQGcjfvkaH6ShN56bwsbP2jyWmywWDocY1+fDVwfvYNPksArt7+avTPN+xTSF
XNntiAmpb6gPfns/bHYIvMhXqeBn79OlZgrKicOOKt06sPYgjiwCZntZ1RoBRiCo
bt2hpinUDqlU1pQplDSjoPN7CEkE6VwyQiJG
-----END CERTIFICATE-----
